; Function Attrs: mustprogress uwtable
define void @_ZNK8facebook5velox10LazyVector5sliceEii(ptr noalias sret(%"class.std::shared_ptr") align 8 %agg.result, ptr nocapture noundef nonnull readonly align 8 dereferenceable(136) %this, i32 noundef %offset, i32 noundef %length) unnamed_addr #0 align 2 {
entry:
  %allLoaded_.i = getelementptr inbounds i8, ptr %this, i64 112
  %0 = load i8, ptr %allLoaded_.i, align 8
  %1 = and i8 %0, 1
  %tobool.i.not = icmp eq i8 %1, 0
  br i1 %tobool.i.not, label %if.then, label %if.end

if.then:                                          ; preds = %entry
  tail call void @llvm.trap()
  unreachable

if.end:                                           ; preds = %entry
  %vector_ = getelementptr inbounds i8, ptr %this, i64 120
  %2 = load ptr, ptr %vector_, align 8
  %vtable = load ptr, ptr %2, align 8
  %vfn = getelementptr inbounds i8, ptr %vtable, i64 224
  %3 = load ptr, ptr %vfn, align 8
  tail call void %3(ptr sret(%"class.std::shared_ptr") align 8 %agg.result, ptr noundef nonnull align 8 dereferenceable(99) %2, i32 noundef %offset, i32 noundef %length)
  ret void
}